; ModuleID = '23/546.cpp'
source_filename = "23/546.cpp"
target datalayout = "e-m:e-p270:32:32-p271:32:32-p272:64:64-i64:64-f80:128-n8:16:32:64-S128"
target triple = "x86_64-pc-linux-gnu"

%"class.std::ios_base::Init" = type { i8 }
%"class.std::basic_istream" = type { i32 (...)**, i64, %"class.std::basic_ios" }
%"class.std::basic_ios" = type { %"class.std::ios_base", %"class.std::basic_ostream"*, i8, i8, %"class.std::basic_streambuf"*, %"class.std::ctype"*, %"class.std::num_put"*, %"class.std::num_get"* }
%"class.std::ios_base" = type { i32 (...)**, i64, i64, i32, i32, i32, %"struct.std::ios_base::_Callback_list"*, %"struct.std::ios_base::_Words", [8 x %"struct.std::ios_base::_Words"], i32, %"struct.std::ios_base::_Words"*, %"class.std::locale" }
%"struct.std::ios_base::_Callback_list" = type { %"struct.std::ios_base::_Callback_list"*, void (i32, %"class.std::ios_base"*, i32)*, i32, i32 }
%"struct.std::ios_base::_Words" = type { i8*, i64 }
%"class.std::locale" = type { %"class.std::locale::_Impl"* }
%"class.std::locale::_Impl" = type { i32, %"class.std::locale::facet"**, i64, %"class.std::locale::facet"**, i8** }
%"class.std::locale::facet" = type <{ i32 (...)**, i32, [4 x i8] }>
%"class.std::basic_ostream" = type { i32 (...)**, %"class.std::basic_ios" }
%"class.std::basic_streambuf" = type { i32 (...)**, i8*, i8*, i8*, i8*, i8*, i8*, %"class.std::locale" }
%"class.std::ctype" = type <{ %"class.std::locale::facet.base", [4 x i8], %struct.__locale_struct*, i8, [7 x i8], i32*, i32*, i16*, i8, [256 x i8], [256 x i8], i8, [6 x i8] }>
%"class.std::locale::facet.base" = type <{ i32 (...)**, i32 }>
%struct.__locale_struct = type { [13 x %struct.__locale_data*], i16*, i32*, i32*, [13 x i8*] }
%struct.__locale_data = type opaque
%"class.std::num_put" = type { %"class.std::locale::facet.base", [4 x i8] }
%"class.std::num_get" = type { %"class.std::locale::facet.base", [4 x i8] }

@_ZStL8__ioinit = internal global %"class.std::ios_base::Init" zeroinitializer, align 1
@__dso_handle = external hidden global i8
@_ZSt3cin = external dso_local global %"class.std::basic_istream", align 8
@_ZSt4cout = external dso_local global %"class.std::basic_ostream", align 8
@llvm.global_ctors = appending global [1 x { i32, void ()*, i8* }] [{ i32, void ()*, i8* } { i32 65535, void ()* @_GLOBAL__sub_I_546.cpp, i8* null }]

; Function Attrs: noinline uwtable
define internal void @__cxx_global_var_init() #0 section ".text.startup" {
  call void @_ZNSt8ios_base4InitC1Ev(%"class.std::ios_base::Init"* @_ZStL8__ioinit)
  %1 = call i32 @__cxa_atexit(void (i8*)* bitcast (void (%"class.std::ios_base::Init"*)* @_ZNSt8ios_base4InitD1Ev to void (i8*)*), i8* getelementptr inbounds (%"class.std::ios_base::Init", %"class.std::ios_base::Init"* @_ZStL8__ioinit, i32 0, i32 0), i8* @__dso_handle) #3
  ret void
}

declare dso_local void @_ZNSt8ios_base4InitC1Ev(%"class.std::ios_base::Init"*) unnamed_addr #1

; Function Attrs: nounwind
declare dso_local void @_ZNSt8ios_base4InitD1Ev(%"class.std::ios_base::Init"*) unnamed_addr #2

; Function Attrs: nounwind
declare dso_local i32 @__cxa_atexit(void (i8*)*, i8*, i8*) #3

; Function Attrs: noinline norecurse uwtable
define dso_local i32 @main() #4 {
  %1 = alloca i32, align 4
  %2 = alloca [110 x i8], align 16
  %3 = alloca [100 x [50 x i8]], align 16
  %4 = alloca i32, align 4
  %5 = alloca i32, align 4
  %6 = alloca i32, align 4
  %7 = alloca i32, align 4
  %8 = alloca i32, align 4
  %9 = alloca i32, align 4
  store i32 0, i32* %1, align 4
  %10 = getelementptr inbounds [110 x i8], [110 x i8]* %2, i64 0, i64 0
  %11 = call dereferenceable(280) %"class.std::basic_istream"* @_ZNSi7getlineEPcl(%"class.std::basic_istream"* @_ZSt3cin, i8* %10, i64 110)
  %12 = getelementptr inbounds [100 x [50 x i8]], [100 x [50 x i8]]* %3, i64 0, i64 0
  %13 = bitcast [50 x i8]* %12 to i8*
  call void @llvm.memset.p0i8.i64(i8* align 16 %13, i8 0, i64 5000, i1 false)
  store i32 0, i32* %4, align 4
  store i32 0, i32* %5, align 4
  store i32 0, i32* %6, align 4
  br label %14

14:                                               ; preds = %54, %0
  %15 = load i32, i32* %6, align 4
  %16 = sext i32 %15 to i64
  %17 = getelementptr inbounds [110 x i8], [110 x i8]* %2, i64 0, i64 %16
  %18 = load i8, i8* %17, align 1
  %19 = sext i8 %18 to i32
  %20 = icmp ne i32 %19, 0
  br i1 %20, label %21, label %57

21:                                               ; preds = %14
  %22 = load i32, i32* %6, align 4
  %23 = sext i32 %22 to i64
  %24 = getelementptr inbounds [110 x i8], [110 x i8]* %2, i64 0, i64 %23
  %25 = load i8, i8* %24, align 1
  %26 = sext i8 %25 to i32
  %27 = icmp ne i32 %26, 32
  br i1 %27, label %28, label %41

28:                                               ; preds = %21
  %29 = load i32, i32* %6, align 4
  %30 = sext i32 %29 to i64
  %31 = getelementptr inbounds [110 x i8], [110 x i8]* %2, i64 0, i64 %30
  %32 = load i8, i8* %31, align 1
  %33 = load i32, i32* %5, align 4
  %34 = sext i32 %33 to i64
  %35 = getelementptr inbounds [100 x [50 x i8]], [100 x [50 x i8]]* %3, i64 0, i64 %34
  %36 = load i32, i32* %6, align 4
  %37 = load i32, i32* %4, align 4
  %38 = sub nsw i32 %36, %37
  %39 = sext i32 %38 to i64
  %40 = getelementptr inbounds [50 x i8], [50 x i8]* %35, i64 0, i64 %39
  store i8 %32, i8* %40, align 1
  br label %41

41:                                               ; preds = %28, %21
  %42 = load i32, i32* %6, align 4
  %43 = sext i32 %42 to i64
  %44 = getelementptr inbounds [110 x i8], [110 x i8]* %2, i64 0, i64 %43
  %45 = load i8, i8* %44, align 1
  %46 = sext i8 %45 to i32
  %47 = icmp eq i32 %46, 32
  br i1 %47, label %48, label %53

48:                                               ; preds = %41
  %49 = load i32, i32* %5, align 4
  %50 = add nsw i32 %49, 1
  store i32 %50, i32* %5, align 4
  %51 = load i32, i32* %6, align 4
  %52 = add nsw i32 %51, 1
  store i32 %52, i32* %4, align 4
  br label %53

53:                                               ; preds = %48, %41
  br label %54

54:                                               ; preds = %53
  %55 = load i32, i32* %6, align 4
  %56 = add nsw i32 %55, 1
  store i32 %56, i32* %6, align 4
  br label %14

57:                                               ; preds = %14
  store i32 0, i32* %7, align 4
  br label %58

58:                                               ; preds = %77, %57
  %59 = load i32, i32* %5, align 4
  %60 = sext i32 %59 to i64
  %61 = getelementptr inbounds [100 x [50 x i8]], [100 x [50 x i8]]* %3, i64 0, i64 %60
  %62 = load i32, i32* %7, align 4
  %63 = sext i32 %62 to i64
  %64 = getelementptr inbounds [50 x i8], [50 x i8]* %61, i64 0, i64 %63
  %65 = load i8, i8* %64, align 1
  %66 = sext i8 %65 to i32
  %67 = icmp ne i32 %66, 0
  br i1 %67, label %68, label %80

68:                                               ; preds = %58
  %69 = load i32, i32* %5, align 4
  %70 = sext i32 %69 to i64
  %71 = getelementptr inbounds [100 x [50 x i8]], [100 x [50 x i8]]* %3, i64 0, i64 %70
  %72 = load i32, i32* %7, align 4
  %73 = sext i32 %72 to i64
  %74 = getelementptr inbounds [50 x i8], [50 x i8]* %71, i64 0, i64 %73
  %75 = load i8, i8* %74, align 1
  %76 = call dereferenceable(272) %"class.std::basic_ostream"* @_ZStlsISt11char_traitsIcEERSt13basic_ostreamIcT_ES5_c(%"class.std::basic_ostream"* dereferenceable(272) @_ZSt4cout, i8 signext %75)
  br label %77

77:                                               ; preds = %68
  %78 = load i32, i32* %7, align 4
  %79 = add nsw i32 %78, 1
  store i32 %79, i32* %7, align 4
  br label %58

80:                                               ; preds = %58
  store i32 1, i32* %8, align 4
  br label %81

81:                                               ; preds = %114, %80
  %82 = load i32, i32* %8, align 4
  %83 = load i32, i32* %5, align 4
  %84 = icmp sle i32 %82, %83
  br i1 %84, label %85, label %117

85:                                               ; preds = %81
  %86 = call dereferenceable(272) %"class.std::basic_ostream"* @_ZStlsISt11char_traitsIcEERSt13basic_ostreamIcT_ES5_c(%"class.std::basic_ostream"* dereferenceable(272) @_ZSt4cout, i8 signext 32)
  store i32 0, i32* %9, align 4
  br label %87

87:                                               ; preds = %110, %85
  %88 = load i32, i32* %5, align 4
  %89 = load i32, i32* %8, align 4
  %90 = sub nsw i32 %88, %89
  %91 = sext i32 %90 to i64
  %92 = getelementptr inbounds [100 x [50 x i8]], [100 x [50 x i8]]* %3, i64 0, i64 %91
  %93 = load i32, i32* %9, align 4
  %94 = sext i32 %93 to i64
  %95 = getelementptr inbounds [50 x i8], [50 x i8]* %92, i64 0, i64 %94
  %96 = load i8, i8* %95, align 1
  %97 = sext i8 %96 to i32
  %98 = icmp ne i32 %97, 0
  br i1 %98, label %99, label %113

99:                                               ; preds = %87
  %100 = load i32, i32* %5, align 4
  %101 = load i32, i32* %8, align 4
  %102 = sub nsw i32 %100, %101
  %103 = sext i32 %102 to i64
  %104 = getelementptr inbounds [100 x [50 x i8]], [100 x [50 x i8]]* %3, i64 0, i64 %103
  %105 = load i32, i32* %9, align 4
  %106 = sext i32 %105 to i64
  %107 = getelementptr inbounds [50 x i8], [50 x i8]* %104, i64 0, i64 %106
  %108 = load i8, i8* %107, align 1
  %109 = call dereferenceable(272) %"class.std::basic_ostream"* @_ZStlsISt11char_traitsIcEERSt13basic_ostreamIcT_ES5_c(%"class.std::basic_ostream"* dereferenceable(272) @_ZSt4cout, i8 signext %108)
  br label %110

110:                                              ; preds = %99
  %111 = load i32, i32* %9, align 4
  %112 = add nsw i32 %111, 1
  store i32 %112, i32* %9, align 4
  br label %87

113:                                              ; preds = %87
  br label %114

114:                                              ; preds = %113
  %115 = load i32, i32* %8, align 4
  %116 = add nsw i32 %115, 1
  store i32 %116, i32* %8, align 4
  br label %81

117:                                              ; preds = %81
  ret i32 0
}

declare dso_local dereferenceable(280) %"class.std::basic_istream"* @_ZNSi7getlineEPcl(%"class.std::basic_istream"*, i8*, i64) #1

; Function Attrs: argmemonly nounwind willreturn
declare void @llvm.memset.p0i8.i64(i8* nocapture writeonly, i8, i64, i1 immarg) #5

declare dso_local dereferenceable(272) %"class.std::basic_ostream"* @_ZStlsISt11char_traitsIcEERSt13basic_ostreamIcT_ES5_c(%"class.std::basic_ostream"* dereferenceable(272), i8 signext) #1

; Function Attrs: noinline uwtable
define internal void @_GLOBAL__sub_I_546.cpp() #0 section ".text.startup" {
  call void @__cxx_global_var_init()
  ret void
}


!llvm.module.flags = !{!0}
!llvm.ident = !{!1}

!0 = !{i32 1, !"wchar_size", i32 4}
!1 = !{!"clang version 10.0.0-4ubuntu1 "}
